; Function Attrs: mustprogress uwtable
define void @_ZN8QuantLib8Swaption10deepUpdateEv(ptr noundef nonnull align 8 dereferenceable(176) %this) unnamed_addr #9 align 2 {
entry:
  %swap_ = getelementptr inbounds nuw i8, ptr %this, i64 136
  %0 = load ptr, ptr %swap_, align 8, !tbaa !52
  %cmp.not.i = icmp eq ptr %0, null
  br i1 %cmp.not.i, label %cond.false.i, label %_ZNK5boost10shared_ptrIN8QuantLib19FixedVsFloatingSwapEEptEv.exit, !prof !74

cond.false.i:                                     ; preds = %entry
  tail call void @_ZN5boost16assertion_failedEPKcS1_S1_l(ptr noundef nonnull @.str.27, ptr noundef nonnull @__PRETTY_FUNCTION__._ZNK5boost10shared_ptrIN8QuantLib19FixedVsFloatingSwapEEptEv, ptr noundef nonnull @.str.28, i64 noundef 784)
  %.pre.i = load ptr, ptr %swap_, align 8, !tbaa !52
  br label %_ZNK5boost10shared_ptrIN8QuantLib19FixedVsFloatingSwapEEptEv.exit

_ZNK5boost10shared_ptrIN8QuantLib19FixedVsFloatingSwapEEptEv.exit: ; preds = %entry, %cond.false.i
  %1 = phi ptr [ %0, %entry ], [ %.pre.i, %cond.false.i ]
  %vtable = load ptr, ptr %1, align 8, !tbaa !33
  %vfn = getelementptr inbounds i8, ptr %vtable, i64 72
  %2 = load ptr, ptr %vfn, align 8
  tail call void %2(ptr noundef nonnull align 8 dereferenceable(256) %1)
  %vtable2 = load ptr, ptr %this, align 8, !tbaa !33
  %vfn3 = getelementptr inbounds i8, ptr %vtable2, i64 16
  %3 = load ptr, ptr %vfn3, align 8
  tail call void %3(ptr noundef nonnull align 8 dereferenceable(12) %this)
  ret void
}